Certificate:
    Data:
        Version: 3 (0x2)
        Serial Number:
            09:f2:5a:da:61:af:dc:78:cb:d2:82:52:4b:23:18:5e
        Signature Algorithm: sha256WithRSAEncryption
        Issuer: CN=RaspberryPi-CA
        Validity
            Not Before: Mar 27 21:43:25 2026 GMT
            Not After : Jun 29 21:43:25 2028 GMT
        Subject: CN=server
        Subject Public Key Info:
            Public Key Algorithm: rsaEncryption
                Public-Key: (2048 bit)
                Modulus:
                    00:e8:68:32:69:d0:95:3a:cd:ba:24:28:29:0e:9c:
                    3c:22:38:ae:39:a8:e0:7d:4b:22:45:94:3e:70:4c:
                    a5:05:a0:ba:71:cf:ea:4d:f7:12:c2:7d:a3:c9:a5:
                    36:99:c4:62:1f:17:3a:8f:1a:58:d0:ab:b1:c1:35:
                    3b:9f:86:20:c2:f5:38:8c:c8:1e:72:4d:9a:b8:92:
                    7a:ac:60:3f:d5:73:48:4f:d7:88:a4:4a:c3:24:13:
                    33:0d:1a:b5:32:d3:c7:35:23:f7:ec:02:6b:48:e6:
                    30:8d:7b:70:75:88:69:42:03:ad:e2:49:64:a1:9e:
                    7b:31:e6:a8:db:31:6a:fe:56:a5:21:30:e1:76:c8:
                    94:0f:b6:56:e8:e5:c2:36:dd:e6:f8:87:aa:b1:fe:
                    2f:76:f7:e3:55:9a:e9:75:38:e4:9f:bb:a2:38:4d:
                    31:28:e3:7d:8c:ab:07:4a:03:9e:23:97:39:55:b4:
                    42:0f:dc:62:af:75:c3:9c:4c:21:65:03:57:38:19:
                    a9:13:36:3e:d5:ef:6c:b3:f4:3a:ec:a3:85:b4:e6:
                    d8:c5:b0:68:d5:66:c2:d0:4e:f2:c3:e7:6f:35:14:
                    a6:f5:96:4d:fd:90:48:02:b7:5c:4a:e0:19:ed:9a:
                    11:53:28:2f:2f:fb:a2:5b:ce:0f:25:51:4d:a2:9a:
                    98:4b
                Exponent: 65537 (0x10001)
        X509v3 extensions:
            X509v3 Basic Constraints: 
                CA:FALSE
            X509v3 Subject Key Identifier: 
                8E:EF:83:20:D1:DF:6E:26:F7:90:AD:92:63:C4:88:9C:37:82:CE:CF
            X509v3 Authority Key Identifier: 
                keyid:7D:65:BC:40:4F:AF:6C:24:89:D5:A6:B8:A4:35:72:42:FF:4C:2F:75
                DirName:/CN=RaspberryPi-CA
                serial:18:BD:22:BB:48:C7:4E:73:20:B3:C8:BF:8A:A8:CD:C5:BC:30:68:73
            X509v3 Extended Key Usage: 
                TLS Web Server Authentication
            X509v3 Key Usage: 
                Digital Signature, Key Encipherment
            X509v3 Subject Alternative Name: 
                DNS:server
    Signature Algorithm: sha256WithRSAEncryption
    Signature Value:
        0c:19:15:f8:0d:ed:14:da:f8:d7:68:7d:60:0a:ce:75:c5:2d:
        62:46:92:d7:99:7c:0e:a7:1e:53:b5:70:4f:20:4b:57:f1:2c:
        98:b1:7f:93:ac:bc:6c:8b:a4:23:8c:26:33:96:93:0c:ee:42:
        43:2a:8f:b0:d5:4b:44:c8:74:e4:df:99:c4:3f:36:cf:64:fe:
        f2:1b:42:dd:35:86:85:c8:67:90:23:9f:91:96:d8:7f:95:31:
        cd:72:a6:d0:65:14:22:0d:d6:39:55:c1:67:d9:7e:37:a3:c0:
        04:b0:55:5a:24:33:ea:f9:c0:f1:98:3e:25:1b:c8:cd:d9:44:
        6b:c1:28:ea:02:c2:2f:0d:40:bf:f0:13:1f:96:d4:dd:e4:90:
        04:58:92:88:52:6a:ce:e0:11:38:0e:6a:dd:bc:de:50:41:41:
        51:1f:ba:83:4e:60:11:ae:1b:e9:e3:f4:5e:2f:90:31:1a:0e:
        4a:2d:97:f4:6c:09:88:73:2c:f5:9a:4b:e7:89:33:4d:ad:3b:
        fa:33:32:11:cc:01:79:92:32:be:85:37:08:5f:f6:00:c2:01:
        7d:8f:ed:42:0b:c4:60:0c:04:ce:4b:4b:f7:72:17:f0:2d:b2:
        f3:1e:78:6d:5a:33:d1:cd:34:09:eb:b9:1d:ab:89:a0:59:63:
        ff:65:17:de
-----BEGIN CERTIFICATE-----
MIIDbTCCAlWgAwIBAgIQCfJa2mGv3HjL0oJSSyMYXjANBgkqhkiG9w0BAQsFADAZ
MRcwFQYDVQQDDA5SYXNwYmVycnlQaS1DQTAeFw0yNjAzMjcyMTQzMjVaFw0yODA2
MjkyMTQzMjVaMBExDzANBgNVBAMMBnNlcnZlcjCCASIwDQYJKoZIhvcNAQEBBQAD
ggEPADCCAQoCggEBAOhoMmnQlTrNuiQoKQ6cPCI4rjmo4H1LIkWUPnBMpQWgunHP
6k33EsJ9o8mlNpnEYh8XOo8aWNCrscE1O5+GIML1OIzIHnJNmriSeqxgP9VzSE/X
iKRKwyQTMw0atTLTxzUj9+wCa0jmMI17cHWIaUIDreJJZKGeezHmqNsxav5WpSEw
4XbIlA+2Vujlwjbd5viHqrH+L3b341Wa6XU45J+7ojhNMSjjfYyrB0oDniOXOVW0
Qg/cYq91w5xMIWUDVzgZqRM2PtXvbLP0OuyjhbTm2MWwaNVmwtBO8sPnbzUUpvWW
Tf2QSAK3XErgGe2aEVMoLy/7olvODyVRTaKamEsCAwEAAaOBuDCBtTAJBgNVHRME
AjAAMB0GA1UdDgQWBBSO74Mg0d9uJveQrZJjxIicN4LOzzBUBgNVHSMETTBLgBR9
ZbxAT69sJInVprikNXJC/0wvdaEdpBswGTEXMBUGA1UEAwwOUmFzcGJlcnJ5UGkt
Q0GCFBi9IrtIx05zILPIv4qozcW8MGhzMBMGA1UdJQQMMAoGCCsGAQUFBwMBMAsG
A1UdDwQEAwIFoDARBgNVHREECjAIggZzZXJ2ZXIwDQYJKoZIhvcNAQELBQADggEB
AAwZFfgN7RTa+NdofWAKznXFLWJGkteZfA6nHlO1cE8gS1fxLJixf5OsvGyLpCOM
JjOWkwzuQkMqj7DVS0TIdOTfmcQ/Ns9k/vIbQt01hoXIZ5Ajn5GW2H+VMc1yptBl
FCIN1jlVwWfZfjejwASwVVokM+r5wPGYPiUbyM3ZRGvBKOoCwi8NQL/wEx+W1N3k
kARYkohSas7gETgOat283lBBQVEfuoNOYBGuG+nj9F4vkDEaDkotl/RsCYhzLPWa
S+eJM02tO/ozMhHMAXmSMr6FNwhf9gDCAX2P7UILxGAMBM5LS/dyF/AtsvMeeG1a
M9HNNAnruR2riaBZY/9lF94=
-----END CERTIFICATE-----
