Certificate:
    Data:
        Version: 3 (0x2)
        Serial Number:
            a6:52:6c:56:a9:73:9a:39:95:a6:19:73:f3:ad:02:66
        Signature Algorithm: sha256WithRSAEncryption
        Issuer: CN=RaspberryPi-CA
        Validity
            Not Before: Mar 27 21:50:52 2026 GMT
            Not After : Jun 29 21:50:52 2028 GMT
        Subject: CN=client1
        Subject Public Key Info:
            Public Key Algorithm: rsaEncryption
                Public-Key: (2048 bit)
                Modulus:
                    00:b9:7d:2b:71:0d:ad:da:4f:ab:b5:c9:6c:ce:21:
                    d5:b8:68:e7:c3:29:17:84:a3:20:46:d4:f5:62:42:
                    6e:c1:9f:64:47:4a:cb:a9:06:71:ea:2a:ec:15:6e:
                    78:05:a0:02:c3:e9:14:68:84:fa:52:66:d0:29:04:
                    60:ad:05:ea:f9:44:91:38:4d:75:ac:ef:59:99:82:
                    63:2f:9c:9a:60:65:5e:1c:92:69:4d:38:dc:67:36:
                    06:e2:f6:da:6e:38:1b:61:b6:0e:c3:45:94:51:26:
                    a4:fe:02:2e:13:4b:be:a8:c8:cd:cc:a6:f8:d9:e9:
                    dc:1a:a3:55:ab:90:4f:43:71:13:65:e0:61:52:e9:
                    75:22:5b:0b:43:95:9e:03:ef:56:f2:6d:a2:3c:4c:
                    55:10:0f:b2:d0:a7:fb:5a:fb:14:9e:43:8a:d5:83:
                    e8:a6:49:5a:8b:35:16:1c:00:2a:d7:2c:83:fa:96:
                    e2:60:ac:df:46:23:a4:63:4d:34:3f:37:a5:b8:e0:
                    e4:e8:a9:bd:27:e4:1d:f7:cd:c0:aa:0a:30:4a:30:
                    a4:81:b7:e1:ec:d2:9f:8f:fe:95:ac:4c:e5:89:e2:
                    5b:39:69:3b:05:3a:1d:00:f0:ab:eb:16:1d:d5:3f:
                    d5:76:a2:9d:f5:4e:18:79:63:26:b9:ec:b3:ec:a8:
                    bc:a9
                Exponent: 65537 (0x10001)
        X509v3 extensions:
            X509v3 Basic Constraints: 
                CA:FALSE
            X509v3 Subject Key Identifier: 
                70:21:7F:AC:35:8B:28:1A:16:92:BB:E6:7D:60:44:F7:58:A2:8C:CA
            X509v3 Authority Key Identifier: 
                keyid:7D:65:BC:40:4F:AF:6C:24:89:D5:A6:B8:A4:35:72:42:FF:4C:2F:75
                DirName:/CN=RaspberryPi-CA
                serial:18:BD:22:BB:48:C7:4E:73:20:B3:C8:BF:8A:A8:CD:C5:BC:30:68:73
            X509v3 Extended Key Usage: 
                TLS Web Client Authentication
            X509v3 Key Usage: 
                Digital Signature
    Signature Algorithm: sha256WithRSAEncryption
    Signature Value:
        50:ad:4a:ab:5e:bb:5f:fc:cf:41:69:32:76:06:1d:0f:9f:b0:
        dd:b3:e4:9e:6c:82:9e:6c:31:86:f4:6a:8b:8f:7f:39:dc:08:
        ab:75:99:22:c3:f9:5f:3e:ba:d2:09:cc:ef:a3:6a:17:d1:15:
        e7:28:5c:30:f5:c1:c3:63:80:1c:48:64:48:7b:fa:be:81:11:
        b4:bb:8c:dd:f4:81:9f:ab:63:6d:3e:5a:8b:e7:3c:88:c4:81:
        8f:24:7f:7a:38:8e:09:cb:76:c5:60:4f:7f:e9:0e:7f:64:93:
        ff:e7:cf:67:a4:36:79:0b:86:a7:cf:e9:9f:09:70:32:0d:06:
        49:2b:09:2e:60:e0:96:10:7b:95:ff:56:de:ed:5b:c3:db:07:
        cb:e2:0d:ea:a8:40:b1:ea:e9:bb:a7:75:52:3a:62:f1:83:fe:
        ef:0c:00:dd:9c:d2:c5:6f:a3:40:32:be:b7:d6:35:9a:d7:b1:
        5d:f1:fa:b1:4f:4f:2e:c0:22:27:d9:1a:91:e7:dd:41:91:c7:
        f9:a8:f4:3a:8c:59:5f:54:09:77:59:3a:67:84:a7:af:f3:ca:
        d0:31:05:59:e2:77:30:26:af:43:8d:fa:bc:36:59:f0:95:91:
        ee:7f:b2:2e:01:7c:09:04:03:76:4d:e4:a2:79:2a:fe:d7:2c:
        69:cc:07:84
-----BEGIN CERTIFICATE-----
MIIDXDCCAkSgAwIBAgIRAKZSbFapc5o5laYZc/OtAmYwDQYJKoZIhvcNAQELBQAw
GTEXMBUGA1UEAwwOUmFzcGJlcnJ5UGktQ0EwHhcNMjYwMzI3MjE1MDUyWhcNMjgw
NjI5MjE1MDUyWjASMRAwDgYDVQQDDAdjbGllbnQxMIIBIjANBgkqhkiG9w0BAQEF
AAOCAQ8AMIIBCgKCAQEAuX0rcQ2t2k+rtclsziHVuGjnwykXhKMgRtT1YkJuwZ9k
R0rLqQZx6irsFW54BaACw+kUaIT6UmbQKQRgrQXq+USROE11rO9ZmYJjL5yaYGVe
HJJpTTjcZzYG4vbabjgbYbYOw0WUUSak/gIuE0u+qMjNzKb42encGqNVq5BPQ3ET
ZeBhUul1IlsLQ5WeA+9W8m2iPExVEA+y0Kf7WvsUnkOK1YPopklaizUWHAAq1yyD
+pbiYKzfRiOkY000PzeluODk6Km9J+Qd983AqgowSjCkgbfh7NKfj/6VrEzlieJb
OWk7BTodAPCr6xYd1T/VdqKd9U4YeWMmueyz7Ki8qQIDAQABo4GlMIGiMAkGA1Ud
EwQCMAAwHQYDVR0OBBYEFHAhf6w1iygaFpK75n1gRPdYoozKMFQGA1UdIwRNMEuA
FH1lvEBPr2wkidWmuKQ1ckL/TC91oR2kGzAZMRcwFQYDVQQDDA5SYXNwYmVycnlQ
aS1DQYIUGL0iu0jHTnMgs8i/iqjNxbwwaHMwEwYDVR0lBAwwCgYIKwYBBQUHAwIw
CwYDVR0PBAQDAgeAMA0GCSqGSIb3DQEBCwUAA4IBAQBQrUqrXrtf/M9BaTJ2Bh0P
n7Dds+SebIKebDGG9GqLj3853AirdZkiw/lfPrrSCczvo2oX0RXnKFww9cHDY4Ac
SGRIe/q+gRG0u4zd9IGfq2NtPlqL5zyIxIGPJH96OI4Jy3bFYE9/6Q5/ZJP/589n
pDZ5C4anz+mfCXAyDQZJKwkuYOCWEHuV/1be7VvD2wfL4g3qqECx6um7p3VSOmLx
g/7vDADdnNLFb6NAMr631jWa17Fd8fqxT08uwCIn2RqR591Bkcf5qPQ6jFlfVAl3
WTpnhKev88rQMQVZ4ncwJq9Djfq8NlnwlZHuf7IuAXwJBAN2TeSieSr+1yxpzAeE
-----END CERTIFICATE-----
